target datalayout = "e-m:e-p270:32:32-p271:32:32-p272:64:64-i64:64-i128:128-f80:128-n8:16:32:64-S128"
target triple = "x86_64-pc-linux-gnu"

%struct.yyjson_mut_val = type { i64, %union.yyjson_val_uni, ptr }
%union.yyjson_val_uni = type { i64 }
%struct.yyjson_val = type { i64, %union.yyjson_val_uni }

; Function Attrs: alwaysinline nounwind uwtable
define internal i64 @unsafe_yyjson_get_len(ptr noundef %0) #4 {
  %2 = alloca ptr, align 8
  store ptr %0, ptr %2, align 8, !tbaa !9
  %3 = load ptr, ptr %2, align 8, !tbaa !9
  %4 = getelementptr inbounds nuw %struct.yyjson_val, ptr %3, i32 0, i32 0
  %5 = load i64, ptr %4, align 8, !tbaa !88
  %6 = lshr i64 %5, 8
  ret i64 %6
}

; Function Attrs: alwaysinline nounwind uwtable
define internal zeroext i8 @unsafe_yyjson_get_type(ptr noundef %0) #4 {
  %2 = alloca ptr, align 8
  %3 = alloca i8, align 1
  store ptr %0, ptr %2, align 8, !tbaa !9
  call void @llvm.lifetime.start.p0(i64 1, ptr %3) #13
  %4 = load ptr, ptr %2, align 8, !tbaa !9
  %5 = getelementptr inbounds nuw %struct.yyjson_val, ptr %4, i32 0, i32 0
  %6 = load i64, ptr %5, align 8, !tbaa !88
  %7 = trunc i64 %6 to i8
  store i8 %7, ptr %3, align 1, !tbaa !87
  %8 = load i8, ptr %3, align 1, !tbaa !87
  %9 = zext i8 %8 to i32
  %10 = and i32 %9, 7
  %11 = trunc i32 %10 to i8
  call void @llvm.lifetime.end.p0(i64 1, ptr %3) #13
  ret i8 %11
}

; Function Attrs: nounwind uwtable
define internal void @yyjson_mut_stat(ptr noundef %0, ptr noundef %1, ptr noundef %2) #0 {
  %4 = alloca ptr, align 8
  %5 = alloca ptr, align 8
  %6 = alloca ptr, align 8
  %7 = alloca i8, align 1
  %8 = alloca ptr, align 8
  %9 = alloca i64, align 8
  %10 = alloca i64, align 8
  %11 = alloca i8, align 1
  store ptr %0, ptr %4, align 8, !tbaa !85
  store ptr %1, ptr %5, align 8, !tbaa !107
  store ptr %2, ptr %6, align 8, !tbaa !107
  call void @llvm.lifetime.start.p0(i64 1, ptr %7) #13
  %12 = load ptr, ptr %4, align 8, !tbaa !85
  %13 = call zeroext i8 @unsafe_yyjson_get_type(ptr noundef %12)
  store i8 %13, ptr %7, align 1, !tbaa !87
  %14 = load ptr, ptr %5, align 8, !tbaa !107
  %15 = load i64, ptr %14, align 8, !tbaa !10
  %16 = add i64 %15, 1
  store i64 %16, ptr %14, align 8, !tbaa !10
  %17 = load i8, ptr %7, align 1, !tbaa !87
  %18 = zext i8 %17 to i32
  %19 = icmp eq i32 %18, 6
  br i1 %19, label %24, label %20

20:                                               ; preds = %3
  %21 = load i8, ptr %7, align 1, !tbaa !87
  %22 = zext i8 %21 to i32
  %23 = icmp eq i32 %22, 7
  br i1 %23, label %24, label %88

24:                                               ; preds = %20, %3
  call void @llvm.lifetime.start.p0(i64 8, ptr %8) #13
  %25 = load ptr, ptr %4, align 8, !tbaa !85
  %26 = getelementptr inbounds nuw %struct.yyjson_mut_val, ptr %25, i32 0, i32 1
  %27 = load ptr, ptr %26, align 8, !tbaa !87
  store ptr %27, ptr %8, align 8, !tbaa !85
  call void @llvm.lifetime.start.p0(i64 8, ptr %9) #13
  %28 = load ptr, ptr %4, align 8, !tbaa !85
  %29 = call i64 @unsafe_yyjson_get_len(ptr noundef %28)
  store i64 %29, ptr %9, align 8, !tbaa !10
  call void @llvm.lifetime.start.p0(i64 8, ptr %10) #13
  %30 = load i8, ptr %7, align 1, !tbaa !87
  %31 = zext i8 %30 to i32
  %32 = icmp eq i32 %31, 7
  %33 = zext i1 %32 to i32
  %34 = trunc i32 %33 to i8
  %35 = zext i8 %34 to i32
  %36 = load i64, ptr %9, align 8, !tbaa !10
  %37 = zext i32 %35 to i64
  %38 = shl i64 %36, %37
  store i64 %38, ptr %9, align 8, !tbaa !10
  %39 = load i64, ptr %9, align 8, !tbaa !10
  %40 = load ptr, ptr %5, align 8, !tbaa !107
  %41 = load i64, ptr %40, align 8, !tbaa !10
  %42 = add i64 %41, %39
  store i64 %42, ptr %40, align 8, !tbaa !10
  store i64 0, ptr %10, align 8, !tbaa !10
  br label %43

43:                                               ; preds = %84, %24
  %44 = load i64, ptr %10, align 8, !tbaa !10
  %45 = load i64, ptr %9, align 8, !tbaa !10
  %46 = icmp ult i64 %44, %45
  br i1 %46, label %47, label %87

47:                                               ; preds = %43
  call void @llvm.lifetime.start.p0(i64 1, ptr %11) #13
  %48 = load ptr, ptr %8, align 8, !tbaa !85
  %49 = call zeroext i8 @unsafe_yyjson_get_type(ptr noundef %48)
  store i8 %49, ptr %11, align 1, !tbaa !87
  %50 = load i8, ptr %11, align 1, !tbaa !87
  %51 = zext i8 %50 to i32
  %52 = icmp eq i32 %51, 5
  br i1 %52, label %57, label %53

53:                                               ; preds = %47
  %54 = load i8, ptr %11, align 1, !tbaa !87
  %55 = zext i8 %54 to i32
  %56 = icmp eq i32 %55, 1
  br i1 %56, label %57, label %64

57:                                               ; preds = %53, %47
  %58 = load ptr, ptr %8, align 8, !tbaa !85
  %59 = call i64 @unsafe_yyjson_get_len(ptr noundef %58)
  %60 = add i64 %59, 1
  %61 = load ptr, ptr %6, align 8, !tbaa !107
  %62 = load i64, ptr %61, align 8, !tbaa !10
  %63 = add i64 %62, %60
  store i64 %63, ptr %61, align 8, !tbaa !10
  br label %80

64:                                               ; preds = %53
  %65 = load i8, ptr %11, align 1, !tbaa !87
  %66 = zext i8 %65 to i32
  %67 = icmp eq i32 %66, 6
  br i1 %67, label %72, label %68

68:                                               ; preds = %64
  %69 = load i8, ptr %11, align 1, !tbaa !87
  %70 = zext i8 %69 to i32
  %71 = icmp eq i32 %70, 7
  br i1 %71, label %72, label %79

72:                                               ; preds = %68, %64
  %73 = load ptr, ptr %8, align 8, !tbaa !85
  %74 = load ptr, ptr %5, align 8, !tbaa !107
  %75 = load ptr, ptr %6, align 8, !tbaa !107
  call void @yyjson_mut_stat(ptr noundef %73, ptr noundef %74, ptr noundef %75)
  %76 = load ptr, ptr %5, align 8, !tbaa !107
  %77 = load i64, ptr %76, align 8, !tbaa !10
  %78 = sub i64 %77, 1
  store i64 %78, ptr %76, align 8, !tbaa !10
  br label %79

79:                                               ; preds = %72, %68
  br label %80

80:                                               ; preds = %79, %57
  %81 = load ptr, ptr %8, align 8, !tbaa !85
  %82 = getelementptr inbounds nuw %struct.yyjson_mut_val, ptr %81, i32 0, i32 2
  %83 = load ptr, ptr %82, align 8, !tbaa !93
  store ptr %83, ptr %8, align 8, !tbaa !85
  call void @llvm.lifetime.end.p0(i64 1, ptr %11) #13
  br label %84

84:                                               ; preds = %80
  %85 = load i64, ptr %10, align 8, !tbaa !10
  %86 = add i64 %85, 1
  store i64 %86, ptr %10, align 8, !tbaa !10
  br label %43, !llvm.loop !109

87:                                               ; preds = %43
  call void @llvm.lifetime.end.p0(i64 8, ptr %10) #13
  call void @llvm.lifetime.end.p0(i64 8, ptr %9) #13
  call void @llvm.lifetime.end.p0(i64 8, ptr %8) #13
  br label %104

88:                                               ; preds = %20
  %89 = load i8, ptr %7, align 1, !tbaa !87
  %90 = zext i8 %89 to i32
  %91 = icmp eq i32 %90, 5
  br i1 %91, label %96, label %92

92:                                               ; preds = %88
  %93 = load i8, ptr %7, align 1, !tbaa !87
  %94 = zext i8 %93 to i32
  %95 = icmp eq i32 %94, 1
  br i1 %95, label %96, label %103

96:                                               ; preds = %92, %88
  %97 = load ptr, ptr %4, align 8, !tbaa !85
  %98 = call i64 @unsafe_yyjson_get_len(ptr noundef %97)
  %99 = add i64 %98, 1
  %100 = load ptr, ptr %6, align 8, !tbaa !107
  %101 = load i64, ptr %100, align 8, !tbaa !10
  %102 = add i64 %101, %99
  store i64 %102, ptr %100, align 8, !tbaa !10
  br label %103

103:                                              ; preds = %96, %92
  br label %104

104:                                              ; preds = %103, %87
  call void @llvm.lifetime.end.p0(i64 1, ptr %7) #13
  ret void
}